; Function Attrs: nofree norecurse nosync nounwind memory(readwrite, inaccessiblemem: none) uwtable
define void @Kit_SopDivideByLiteralQuo(ptr noundef captures(none) %0, i32 noundef %1) local_unnamed_addr #0 {
  %3 = getelementptr i8, ptr %0, i64 4
  %.val17 = load i32, ptr %3, align 4, !tbaa !3
  %4 = icmp sgt i32 %.val17, 0
  br i1 %4, label %.lr.ph, label %.critedge

.lr.ph:                                           ; preds = %2
  %5 = getelementptr i8, ptr %0, i64 8
  %.val15 = load ptr, ptr %5, align 8, !tbaa !12
  %6 = shl nuw i32 1, %1
  %7 = xor i32 %6, -1
  br label %8

8:                                                ; preds = %.lr.ph, %18
  %.val23 = phi i32 [ %.val17, %.lr.ph ], [ %.val, %18 ]
  %indvars.iv = phi i64 [ 0, %.lr.ph ], [ %indvars.iv.next, %18 ]
  %.019 = phi i32 [ 0, %.lr.ph ], [ %.1, %18 ]
  %9 = getelementptr inbounds nuw i32, ptr %.val15, i64 %indvars.iv
  %10 = load i32, ptr %9, align 4, !tbaa !15
  %.not = icmp eq i32 %10, 0
  br i1 %.not, label %.critedge, label %11

11:                                               ; preds = %8
  %12 = and i32 %10, %6
  %.not14 = icmp eq i32 %12, 0
  br i1 %.not14, label %18, label %13

13:                                               ; preds = %11
  %14 = and i32 %10, %7
  %15 = add nsw i32 %.019, 1
  %16 = sext i32 %.019 to i64
  %17 = getelementptr inbounds i32, ptr %.val15, i64 %16
  store i32 %14, ptr %17, align 4, !tbaa !15
  %.val.pre = load i32, ptr %3, align 4, !tbaa !3
  br label %18

18:                                               ; preds = %11, %13
  %.val = phi i32 [ %.val.pre, %13 ], [ %.val23, %11 ]
  %.1 = phi i32 [ %15, %13 ], [ %.019, %11 ]
  %indvars.iv.next = add nuw nsw i64 %indvars.iv, 1
  %19 = sext i32 %.val to i64
  %20 = icmp slt i64 %indvars.iv.next, %19
  br i1 %20, label %8, label %.critedge, !llvm.loop !20

.critedge:                                        ; preds = %8, %18, %2
  %.0.lcssa = phi i32 [ 0, %2 ], [ %.1, %18 ], [ %.019, %8 ]
  store i32 %.0.lcssa, ptr %3, align 4, !tbaa !3
  ret void
}